target datalayout = "e-m:e-p270:32:32-p271:32:32-p272:64:64-i64:64-i128:128-f80:128-n8:16:32:64-S128"
target triple = "x86_64-pc-linux-gnu"

; Function Attrs: nounwind uwtable
define void @lv_memset(ptr noundef %0, i8 noundef zeroext %1, i64 noundef %2) #0 {
  %4 = alloca ptr, align 8
  %5 = alloca i8, align 1
  %6 = alloca i64, align 8
  %7 = alloca ptr, align 8
  %8 = alloca i64, align 8
  %9 = alloca i32, align 4
  %10 = alloca ptr, align 8
  store ptr %0, ptr %4, align 8, !tbaa !3
  store i8 %1, ptr %5, align 1, !tbaa !9
  store i64 %2, ptr %6, align 8, !tbaa !7
  call void @llvm.lifetime.start.p0(i64 8, ptr %7) #3
  %11 = load ptr, ptr %4, align 8, !tbaa !3
  store ptr %11, ptr %7, align 8, !tbaa !3
  call void @llvm.lifetime.start.p0(i64 8, ptr %8) #3
  %12 = load ptr, ptr %7, align 8, !tbaa !3
  %13 = ptrtoint ptr %12 to i64
  %14 = and i64 %13, 7
  store i64 %14, ptr %8, align 8, !tbaa !7
  %15 = load i64, ptr %8, align 8, !tbaa !7
  %16 = icmp ne i64 %15, 0
  br i1 %16, label %17, label %38

17:                                               ; preds = %3
  %18 = load i64, ptr %8, align 8, !tbaa !7
  %19 = sub i64 8, %18
  store i64 %19, ptr %8, align 8, !tbaa !7
  br label %20

20:                                               ; preds = %28, %17
  %21 = load i64, ptr %8, align 8, !tbaa !7
  %22 = icmp ne i64 %21, 0
  br i1 %22, label %23, label %26

23:                                               ; preds = %20
  %24 = load i64, ptr %6, align 8, !tbaa !7
  %25 = icmp ne i64 %24, 0
  br label %26

26:                                               ; preds = %23, %20
  %27 = phi i1 [ false, %20 ], [ %25, %23 ]
  br i1 %27, label %28, label %37

28:                                               ; preds = %26
  %29 = load i8, ptr %5, align 1, !tbaa !9
  %30 = load ptr, ptr %7, align 8, !tbaa !3
  store i8 %29, ptr %30, align 1, !tbaa !9
  %31 = load ptr, ptr %7, align 8, !tbaa !3
  %32 = getelementptr inbounds nuw i8, ptr %31, i32 1
  store ptr %32, ptr %7, align 8, !tbaa !3
  %33 = load i64, ptr %6, align 8, !tbaa !7
  %34 = add i64 %33, -1
  store i64 %34, ptr %6, align 8, !tbaa !7
  %35 = load i64, ptr %8, align 8, !tbaa !7
  %36 = add i64 %35, -1
  store i64 %36, ptr %8, align 8, !tbaa !7
  br label %20, !llvm.loop !19

37:                                               ; preds = %26
  br label %38

38:                                               ; preds = %37, %3
  call void @llvm.lifetime.start.p0(i64 4, ptr %9) #3
  %39 = load i8, ptr %5, align 1, !tbaa !9
  %40 = zext i8 %39 to i32
  %41 = load i8, ptr %5, align 1, !tbaa !9
  %42 = zext i8 %41 to i32
  %43 = shl i32 %42, 8
  %44 = add i32 %40, %43
  %45 = load i8, ptr %5, align 1, !tbaa !9
  %46 = zext i8 %45 to i32
  %47 = shl i32 %46, 16
  %48 = add i32 %44, %47
  %49 = load i8, ptr %5, align 1, !tbaa !9
  %50 = zext i8 %49 to i32
  %51 = shl i32 %50, 24
  %52 = add i32 %48, %51
  store i32 %52, ptr %9, align 4, !tbaa !15
  call void @llvm.lifetime.start.p0(i64 8, ptr %10) #3
  %53 = load ptr, ptr %7, align 8, !tbaa !3
  store ptr %53, ptr %10, align 8, !tbaa !3
  br label %54

54:                                               ; preds = %57, %38
  %55 = load i64, ptr %6, align 8, !tbaa !7
  %56 = icmp ugt i64 %55, 32
  br i1 %56, label %57, label %92

57:                                               ; preds = %54
  %58 = load i32, ptr %9, align 4, !tbaa !15
  %59 = load ptr, ptr %10, align 8, !tbaa !3
  store i32 %58, ptr %59, align 4, !tbaa !15
  %60 = load ptr, ptr %10, align 8, !tbaa !3
  %61 = getelementptr inbounds nuw i32, ptr %60, i32 1
  store ptr %61, ptr %10, align 8, !tbaa !3
  %62 = load i32, ptr %9, align 4, !tbaa !15
  %63 = load ptr, ptr %10, align 8, !tbaa !3
  store i32 %62, ptr %63, align 4, !tbaa !15
  %64 = load ptr, ptr %10, align 8, !tbaa !3
  %65 = getelementptr inbounds nuw i32, ptr %64, i32 1
  store ptr %65, ptr %10, align 8, !tbaa !3
  %66 = load i32, ptr %9, align 4, !tbaa !15
  %67 = load ptr, ptr %10, align 8, !tbaa !3
  store i32 %66, ptr %67, align 4, !tbaa !15
  %68 = load ptr, ptr %10, align 8, !tbaa !3
  %69 = getelementptr inbounds nuw i32, ptr %68, i32 1
  store ptr %69, ptr %10, align 8, !tbaa !3
  %70 = load i32, ptr %9, align 4, !tbaa !15
  %71 = load ptr, ptr %10, align 8, !tbaa !3
  store i32 %70, ptr %71, align 4, !tbaa !15
  %72 = load ptr, ptr %10, align 8, !tbaa !3
  %73 = getelementptr inbounds nuw i32, ptr %72, i32 1
  store ptr %73, ptr %10, align 8, !tbaa !3
  %74 = load i32, ptr %9, align 4, !tbaa !15
  %75 = load ptr, ptr %10, align 8, !tbaa !3
  store i32 %74, ptr %75, align 4, !tbaa !15
  %76 = load ptr, ptr %10, align 8, !tbaa !3
  %77 = getelementptr inbounds nuw i32, ptr %76, i32 1
  store ptr %77, ptr %10, align 8, !tbaa !3
  %78 = load i32, ptr %9, align 4, !tbaa !15
  %79 = load ptr, ptr %10, align 8, !tbaa !3
  store i32 %78, ptr %79, align 4, !tbaa !15
  %80 = load ptr, ptr %10, align 8, !tbaa !3
  %81 = getelementptr inbounds nuw i32, ptr %80, i32 1
  store ptr %81, ptr %10, align 8, !tbaa !3
  %82 = load i32, ptr %9, align 4, !tbaa !15
  %83 = load ptr, ptr %10, align 8, !tbaa !3
  store i32 %82, ptr %83, align 4, !tbaa !15
  %84 = load ptr, ptr %10, align 8, !tbaa !3
  %85 = getelementptr inbounds nuw i32, ptr %84, i32 1
  store ptr %85, ptr %10, align 8, !tbaa !3
  %86 = load i32, ptr %9, align 4, !tbaa !15
  %87 = load ptr, ptr %10, align 8, !tbaa !3
  store i32 %86, ptr %87, align 4, !tbaa !15
  %88 = load ptr, ptr %10, align 8, !tbaa !3
  %89 = getelementptr inbounds nuw i32, ptr %88, i32 1
  store ptr %89, ptr %10, align 8, !tbaa !3
  %90 = load i64, ptr %6, align 8, !tbaa !7
  %91 = sub i64 %90, 32
  store i64 %91, ptr %6, align 8, !tbaa !7
  br label %54, !llvm.loop !20

92:                                               ; preds = %54
  %93 = load ptr, ptr %10, align 8, !tbaa !3
  store ptr %93, ptr %7, align 8, !tbaa !3
  br label %94

94:                                               ; preds = %97, %92
  %95 = load i64, ptr %6, align 8, !tbaa !7
  %96 = icmp ne i64 %95, 0
  br i1 %96, label %97, label %104

97:                                               ; preds = %94
  %98 = load i8, ptr %5, align 1, !tbaa !9
  %99 = load ptr, ptr %7, align 8, !tbaa !3
  store i8 %98, ptr %99, align 1, !tbaa !9
  %100 = load ptr, ptr %7, align 8, !tbaa !3
  %101 = getelementptr inbounds nuw i8, ptr %100, i32 1
  store ptr %101, ptr %7, align 8, !tbaa !3
  %102 = load i64, ptr %6, align 8, !tbaa !7
  %103 = add i64 %102, -1
  store i64 %103, ptr %6, align 8, !tbaa !7
  br label %94, !llvm.loop !21

104:                                              ; preds = %94
  call void @llvm.lifetime.end.p0(i64 8, ptr %10) #3
  call void @llvm.lifetime.end.p0(i64 4, ptr %9) #3
  call void @llvm.lifetime.end.p0(i64 8, ptr %8) #3
  call void @llvm.lifetime.end.p0(i64 8, ptr %7) #3
  ret void
}