; Function Attrs: nofree norecurse nosync nounwind memory(argmem: write) uwtable
define void @lv_memset(ptr noundef %0, i8 noundef zeroext %1, i64 noundef %2) local_unnamed_addr #1 {
  %4 = ptrtoint ptr %0 to i64
  %5 = and i64 %4, 7
  %.not = icmp ne i64 %5, 0
  %6 = icmp ne i64 %2, 0
  %or.cond = and i1 %.not, %6
  br i1 %or.cond, label %.lr.ph.preheader, label %.loopexit

.lr.ph.preheader:                                 ; preds = %3
  %7 = add i64 %2, -1
  %8 = xor i64 %5, 7
  %umin = tail call i64 @llvm.umin.i64(i64 %7, i64 %8)
  %9 = add nuw nsw i64 %umin, 1
  tail call void @llvm.memset.p0.i64(ptr noundef nonnull align 1 dereferenceable(1) %0, i8 %1, i64 %9, i1 false), !tbaa !3
  %scevgep = getelementptr i8, ptr %0, i64 %9
  %10 = sub i64 %7, %umin
  br label %.loopexit

.loopexit:                                        ; preds = %.lr.ph.preheader, %3
  %.049 = phi ptr [ %0, %3 ], [ %scevgep, %.lr.ph.preheader ]
  %.047 = phi i64 [ %2, %3 ], [ %10, %.lr.ph.preheader ]
  %11 = zext i8 %1 to i32
  %12 = mul nuw i32 %11, 16843009
  %13 = icmp ugt i64 %.047, 32
  br i1 %13, label %.lr.ph60, label %.preheader

.preheader:                                       ; preds = %.loopexit
  %.not5363 = icmp eq i64 %.047, 0
  br i1 %.not5363, label %._crit_edge, label %.lr.ph66.preheader

.lr.ph66.preheader:                               ; preds = %.lr.ph60, %.preheader
  %.0.lcssa76 = phi ptr [ %.049, %.preheader ], [ %21, %.lr.ph60 ]
  %.2.lcssa75 = phi i64 [ %.047, %.preheader ], [ %22, %.lr.ph60 ]
  tail call void @llvm.memset.p0.i64(ptr align 1 %.0.lcssa76, i8 %1, i64 %.2.lcssa75, i1 false), !tbaa !3
  br label %._crit_edge

.lr.ph60:                                         ; preds = %.loopexit, %.lr.ph60
  %.059 = phi ptr [ %21, %.lr.ph60 ], [ %.049, %.loopexit ]
  %.258 = phi i64 [ %22, %.lr.ph60 ], [ %.047, %.loopexit ]
  store i32 %12, ptr %.059, align 4, !tbaa !11
  %14 = getelementptr inbounds nuw i8, ptr %.059, i64 4
  store i32 %12, ptr %14, align 4, !tbaa !11
  %15 = getelementptr inbounds nuw i8, ptr %.059, i64 8
  store i32 %12, ptr %15, align 4, !tbaa !11
  %16 = getelementptr inbounds nuw i8, ptr %.059, i64 12
  store i32 %12, ptr %16, align 4, !tbaa !11
  %17 = getelementptr inbounds nuw i8, ptr %.059, i64 16
  store i32 %12, ptr %17, align 4, !tbaa !11
  %18 = getelementptr inbounds nuw i8, ptr %.059, i64 20
  store i32 %12, ptr %18, align 4, !tbaa !11
  %19 = getelementptr inbounds nuw i8, ptr %.059, i64 24
  store i32 %12, ptr %19, align 4, !tbaa !11
  %20 = getelementptr inbounds nuw i8, ptr %.059, i64 28
  store i32 %12, ptr %20, align 4, !tbaa !11
  %21 = getelementptr inbounds nuw i8, ptr %.059, i64 32
  %22 = add i64 %.258, -32
  %23 = icmp ugt i64 %22, 32
  br i1 %23, label %.lr.ph60, label %.lr.ph66.preheader, !llvm.loop !15

._crit_edge:                                      ; preds = %.lr.ph66.preheader, %.preheader
  ret void
}